; Function Attrs: mustprogress uwtable
define noundef ptr @mi_new_realloc(ptr noundef %0, i64 noundef %1) local_unnamed_addr #6 personality ptr @__gxx_personality_v0 {
  %3 = tail call align 8 ptr @llvm.threadlocal.address.p0(ptr align 8 @_mi_heap_default)
  %4 = load ptr, ptr %3, align 8, !tbaa !33
  %5 = tail call noundef ptr @_Z21_mi_heap_realloc_zeroP9mi_heap_sPvmb(ptr noundef %4, ptr noundef %0, i64 noundef %1, i1 noundef zeroext false) #55
  %6 = icmp eq ptr %5, null
  br i1 %6, label %.lr.ph, label %.critedge

.lr.ph:                                           ; preds = %2, %_ZL18mi_try_new_handlerb.exit
  %7 = tail call noundef ptr @_ZSt15get_new_handlerv() #55
  %.not = icmp eq ptr %7, null
  br i1 %.not, label %8, label %_ZL18mi_try_new_handlerb.exit

8:                                                ; preds = %.lr.ph
  tail call void (i32, ptr, ...) @_Z17_mi_error_messageiPKcz(i32 noundef 12, ptr noundef nonnull @.str.98)
  %9 = tail call ptr @__cxa_allocate_exception(i64 8) #55
  store ptr getelementptr inbounds nuw inrange(-16, 24) (i8, ptr @_ZTVSt9bad_alloc, i64 16), ptr %9, align 8, !tbaa !51
  tail call void @__cxa_throw(ptr nonnull %9, ptr nonnull @_ZTISt9bad_alloc, ptr nonnull @_ZNSt9bad_allocD1Ev) #58
  unreachable

_ZL18mi_try_new_handlerb.exit:                    ; preds = %.lr.ph
  tail call void %7()
  %10 = load ptr, ptr %3, align 8, !tbaa !33
  %11 = tail call noundef ptr @_Z21_mi_heap_realloc_zeroP9mi_heap_sPvmb(ptr noundef %10, ptr noundef %0, i64 noundef %1, i1 noundef zeroext false) #55
  %12 = icmp eq ptr %11, null
  br i1 %12, label %.lr.ph, label %.critedge, !llvm.loop !59

.critedge:                                        ; preds = %_ZL18mi_try_new_handlerb.exit, %2
  %.lcssa = phi ptr [ %5, %2 ], [ %11, %_ZL18mi_try_new_handlerb.exit ]
  ret ptr %.lcssa
}